; Function Attrs: mustprogress uwtable
define internal noundef zeroext i1 @_ZNK7testing8internal15ResultOfMatcherIZN4absl18debugging_internal12_GLOBAL__N_122DecodeRustPunycodeTest19PointsToTheNulAfterERKNSt7__cxx1112basic_stringIcSt11char_traitsIcESaIcEEEEUlPKcE_NS_18PolymorphicMatcherINS0_18StrEqualityMatcherISB_EEEEE4ImplIRKPcE15MatchAndExplainESP_PNS_19MatchResultListenerE(ptr noundef nonnull align 8 dereferenceable(72) %0, ptr noundef nonnull readonly align 8 captures(none) dereferenceable(8) %1, ptr noundef %2) unnamed_addr #4 align 2 {
  %4 = alloca ptr, align 8
  %5 = getelementptr inbounds nuw i8, ptr %0, i64 8
  %6 = getelementptr inbounds nuw i8, ptr %0, i64 16
  %7 = load i64, ptr %6, align 8, !tbaa !10
  %8 = icmp eq i64 %7, 0
  %9 = getelementptr inbounds nuw i8, ptr %2, i64 8
  %10 = load ptr, ptr %9, align 8, !tbaa !141
  %.not.i = icmp eq ptr %10, null
  br i1 %8, label %11, label %14

11:                                               ; preds = %3
  br i1 %.not.i, label %_ZN7testing19MatchResultListenerlsIA42_cEERS0_RKT_.exit, label %12

12:                                               ; preds = %11
  %13 = tail call noundef nonnull align 8 dereferenceable(8) ptr @_ZSt16__ostream_insertIcSt11char_traitsIcEERSt13basic_ostreamIT_T0_ES6_PKS3_l(ptr noundef nonnull align 8 dereferenceable(8) %10, ptr noundef nonnull @.str.114, i64 noundef 41)
  br label %_ZN7testing19MatchResultListenerlsIA42_cEERS0_RKT_.exit

14:                                               ; preds = %3
  br i1 %.not.i, label %_ZN7testing19MatchResultListenerlsIA42_cEERS0_RKT_.exit, label %_ZN7testing19MatchResultListenerlsIA7_cEERS0_RKT_.exit

_ZN7testing19MatchResultListenerlsIA7_cEERS0_RKT_.exit: ; preds = %14
  %15 = tail call noundef nonnull align 8 dereferenceable(8) ptr @_ZSt16__ostream_insertIcSt11char_traitsIcEERSt13basic_ostreamIT_T0_ES6_PKS3_l(ptr noundef nonnull align 8 dereferenceable(8) %10, ptr noundef nonnull @.str.113, i64 noundef 6)
  %.pr = load ptr, ptr %9, align 8, !tbaa !141
  %.not.i6 = icmp eq ptr %.pr, null
  br i1 %.not.i6, label %_ZN7testing19MatchResultListenerlsIA42_cEERS0_RKT_.exit, label %_ZN7testing19MatchResultListenerlsINSt7__cxx1112basic_stringIcSt11char_traitsIcESaIcEEEEERS0_RKT_.exit

_ZN7testing19MatchResultListenerlsINSt7__cxx1112basic_stringIcSt11char_traitsIcESaIcEEEEERS0_RKT_.exit: ; preds = %_ZN7testing19MatchResultListenerlsIA7_cEERS0_RKT_.exit
  %16 = load ptr, ptr %5, align 8, !tbaa !16
  %17 = load i64, ptr %6, align 8, !tbaa !10
  %18 = tail call noundef nonnull align 8 dereferenceable(8) ptr @_ZSt16__ostream_insertIcSt11char_traitsIcEERSt13basic_ostreamIT_T0_ES6_PKS3_l(ptr noundef nonnull align 8 dereferenceable(8) %.pr, ptr noundef %16, i64 noundef %17)
  %.pr9 = load ptr, ptr %9, align 8, !tbaa !141
  %.not.i7 = icmp eq ptr %.pr9, null
  br i1 %.not.i7, label %_ZN7testing19MatchResultListenerlsIA42_cEERS0_RKT_.exit, label %19

19:                                               ; preds = %_ZN7testing19MatchResultListenerlsINSt7__cxx1112basic_stringIcSt11char_traitsIcESaIcEEEEERS0_RKT_.exit
  %20 = tail call noundef nonnull align 8 dereferenceable(8) ptr @_ZSt16__ostream_insertIcSt11char_traitsIcEERSt13basic_ostreamIT_T0_ES6_PKS3_l(ptr noundef nonnull align 8 dereferenceable(8) %.pr9, ptr noundef nonnull @.str.115, i64 noundef 4)
  br label %_ZN7testing19MatchResultListenerlsIA42_cEERS0_RKT_.exit

_ZN7testing19MatchResultListenerlsIA42_cEERS0_RKT_.exit: ; preds = %14, %_ZN7testing19MatchResultListenerlsIA7_cEERS0_RKT_.exit, %19, %_ZN7testing19MatchResultListenerlsINSt7__cxx1112basic_stringIcSt11char_traitsIcESaIcEEEEERS0_RKT_.exit, %12, %11
  call void @llvm.lifetime.start.p0(i64 8, ptr nonnull %4) #24
  %21 = getelementptr inbounds nuw i8, ptr %0, i64 40
  %.sroa.0.0.copyload = load i64, ptr %21, align 8, !tbaa !53
  %.val = load ptr, ptr %1, align 8, !tbaa !28
  %22 = sub i64 0, %.sroa.0.0.copyload
  %23 = getelementptr inbounds i8, ptr %.val, i64 %22
  store ptr %23, ptr %4, align 8, !tbaa !28
  %24 = getelementptr inbounds nuw i8, ptr %0, i64 48
  %25 = call noundef zeroext i1 @_ZN7testing8internal20MatchPrintAndExplainIPKcS3_EEbRT_RKNS_7MatcherIT0_EEPNS_19MatchResultListenerE(ptr noundef nonnull align 8 dereferenceable(8) %4, ptr noundef nonnull align 8 dereferenceable(24) %24, ptr noundef nonnull %2)
  call void @llvm.lifetime.end.p0(i64 8, ptr nonnull %4) #24
  ret i1 %25
}